; Function Attrs: mustprogress noinline uwtable
define dso_local noundef nonnull ptr @_ZN4Luau11emplaceTypeINS_9Unifiable5BoundIPKNS_4TypeEEEJRS5_EEEPT_PS3_DpOT0_(ptr noundef %0, ptr noundef nonnull readonly align 8 captures(none) dereferenceable(8) %1) local_unnamed_addr #22 {
  %3 = load i32, ptr %0, align 8, !tbaa !8
  %4 = sext i32 %3 to i64
  %5 = getelementptr inbounds [21 x ptr], ptr @_ZN4Luau7VariantIJNS_9Unifiable5BoundIPKNS_4TypeEEENS1_5ErrorIS5_EENS_8FreeTypeENS_11GenericTypeENS_13PrimitiveTypeENS_13SingletonTypeENS_11BlockedTypeENS_20PendingExpansionTypeENS_12FunctionTypeENS_9TableTypeENS_13MetatableTypeENS_9ClassTypeENS_7AnyTypeENS_9UnionTypeENS_16IntersectionTypeENS_8LazyTypeENS_11UnknownTypeENS_9NeverTypeENS_12NegationTypeENS_12NoRefineTypeENS_24TypeFunctionInstanceTypeEEE9tableDtorE, i64 0, i64 %4
  %6 = load ptr, ptr %5, align 8, !tbaa !306
  %7 = getelementptr inbounds nuw i8, ptr %0, i64 8
  tail call void %6(ptr noundef nonnull %7)
  store i32 0, ptr %0, align 8, !tbaa !8
  %8 = load ptr, ptr %1, align 8, !tbaa !10
  store ptr %8, ptr %7, align 8, !tbaa !301
  ret ptr %7
}